target datalayout = "e-m:e-p270:32:32-p271:32:32-p272:64:64-i64:64-i128:128-f80:128-n8:16:32:64-S128"
target triple = "x86_64-pc-linux-gnu"

%union.pthread_mutex_t = type { %struct.__pthread_mutex_s }
%struct.__pthread_mutex_s = type { i32, i32, i32, i32, i32, i16, i16, %struct.__pthread_internal_list }
%struct.__pthread_internal_list = type { ptr, ptr }

@power_save_config = dso_local global i8 0, align 1
@suspend_prog = dso_local global ptr null, align 8
@resume_prog = dso_local global ptr null, align 8
@resume_fail_prog = dso_local global ptr null, align 8
@partial_node_list = dso_local global ptr null, align 8
@exc_node_bitmap = dso_local global ptr null, align 8
@power_mutex = internal global %union.pthread_mutex_t zeroinitializer, align 8
@.str.7 = private unnamed_addr constant [29 x i8] c"%s: pthread_mutex_lock(): %m\00", align 1
@.str.12 = private unnamed_addr constant [31 x i8] c"%s: pthread_mutex_unlock(): %m\00", align 1
@__func__.config_power_mgr_fini = private unnamed_addr constant [22 x i8] c"config_power_mgr_fini\00", align 1
@suspend_exc_down = internal global i8 0, align 1
@suspend_exc_state_flags = internal global i32 0, align 4

; Function Attrs: nounwind uwtable
define internal void @_clear_power_config() #0 {
  call void @slurm_xfree(ptr noundef @suspend_prog)
  call void @slurm_xfree(ptr noundef @resume_prog)
  call void @slurm_xfree(ptr noundef @resume_fail_prog)
  store i8 0, ptr @suspend_exc_down, align 1
  store i32 0, ptr @suspend_exc_state_flags, align 4
  br label %1

1:                                                ; preds = %0
  %2 = load ptr, ptr @exc_node_bitmap, align 8
  %3 = icmp ne ptr %2, null
  br i1 %3, label %4, label %5

4:                                                ; preds = %1
  call void @slurm_bit_free(ptr noundef @exc_node_bitmap)
  br label %5

5:                                                ; preds = %4, %1
  store ptr null, ptr @exc_node_bitmap, align 8
  br label %6

6:                                                ; preds = %5
  br label %7

7:                                                ; preds = %6
  %8 = load ptr, ptr @partial_node_list, align 8
  %9 = icmp ne ptr %8, null
  br i1 %9, label %10, label %12

10:                                               ; preds = %7
  %11 = load ptr, ptr @partial_node_list, align 8
  call void @list_destroy(ptr noundef %11)
  br label %12

12:                                               ; preds = %10, %7
  store ptr null, ptr @partial_node_list, align 8
  br label %13

13:                                               ; preds = %12
  ret void
}

; Function Attrs: nounwind uwtable
define dso_local void @config_power_mgr_fini() #0 {
  %1 = alloca i32, align 4
  %2 = alloca i32, align 4
  br label %3

3:                                                ; preds = %0
  call void @llvm.lifetime.start.p0(i64 4, ptr %1) #9
  %4 = call i32 @pthread_mutex_lock(ptr noundef @power_mutex) #9
  store i32 %4, ptr %1, align 4
  %5 = load i32, ptr %1, align 4
  %6 = icmp ne i32 %5, 0
  br i1 %6, label %7, label %10

7:                                                ; preds = %3
  %8 = load i32, ptr %1, align 4
  %9 = call ptr @__errno_location() #11
  store i32 %8, ptr %9, align 4
  call void (ptr, ...) @fatal_abort(ptr noundef @.str.7, ptr noundef @__func__.config_power_mgr_fini) #12
  unreachable

10:                                               ; preds = %3
  call void @llvm.lifetime.end.p0(i64 4, ptr %1) #9
  br label %11

11:                                               ; preds = %10
  store i8 0, ptr @power_save_config, align 1
  call void @_clear_power_config()
  br label %12

12:                                               ; preds = %11
  call void @llvm.lifetime.start.p0(i64 4, ptr %2) #9
  %13 = call i32 @pthread_mutex_unlock(ptr noundef @power_mutex) #9
  store i32 %13, ptr %2, align 4
  %14 = load i32, ptr %2, align 4
  %15 = icmp ne i32 %14, 0
  br i1 %15, label %16, label %19

16:                                               ; preds = %12
  %17 = load i32, ptr %2, align 4
  %18 = call ptr @__errno_location() #11
  store i32 %17, ptr %18, align 4
  call void (ptr, ...) @fatal_abort(ptr noundef @.str.12, ptr noundef @__func__.config_power_mgr_fini) #12
  unreachable

19:                                               ; preds = %12
  call void @llvm.lifetime.end.p0(i64 4, ptr %2) #9
  br label %20

20:                                               ; preds = %19
  ret void
}