; Function Attrs: nounwind uwtable
define dso_local void @config_power_mgr_fini() local_unnamed_addr #0 {
  %1 = tail call i32 @pthread_mutex_lock(ptr noundef nonnull @power_mutex) #12
  %.not = icmp eq i32 %1, 0
  br i1 %.not, label %4, label %2

2:                                                ; preds = %0
  %3 = tail call ptr @__errno_location() #14
  store i32 %1, ptr %3, align 4
  tail call void (ptr, ...) @fatal_abort(ptr noundef nonnull @.str.7, ptr noundef nonnull @__func__.config_power_mgr_fini) #15
  unreachable

4:                                                ; preds = %0
  store i8 0, ptr @power_save_config, align 1
  tail call void @slurm_xfree(ptr noundef nonnull @suspend_prog) #12
  tail call void @slurm_xfree(ptr noundef nonnull @resume_prog) #12
  tail call void @slurm_xfree(ptr noundef nonnull @resume_fail_prog) #12
  store i1 false, ptr @suspend_exc_down, align 1
  store i32 0, ptr @suspend_exc_state_flags, align 4
  %5 = load ptr, ptr @exc_node_bitmap, align 8
  %.not.i = icmp eq ptr %5, null
  br i1 %.not.i, label %7, label %6

6:                                                ; preds = %4
  tail call void @slurm_bit_free(ptr noundef nonnull @exc_node_bitmap) #12
  br label %7

7:                                                ; preds = %6, %4
  store ptr null, ptr @exc_node_bitmap, align 8
  %8 = load ptr, ptr @partial_node_list, align 8
  %.not1.i = icmp eq ptr %8, null
  br i1 %.not1.i, label %_clear_power_config.exit, label %9

9:                                                ; preds = %7
  tail call void @list_destroy(ptr noundef nonnull %8) #12
  br label %_clear_power_config.exit

_clear_power_config.exit:                         ; preds = %7, %9
  store ptr null, ptr @partial_node_list, align 8
  %10 = tail call i32 @pthread_mutex_unlock(ptr noundef nonnull @power_mutex) #12
  %.not5 = icmp eq i32 %10, 0
  br i1 %.not5, label %13, label %11

11:                                               ; preds = %_clear_power_config.exit
  %12 = tail call ptr @__errno_location() #14
  store i32 %10, ptr %12, align 4
  tail call void (ptr, ...) @fatal_abort(ptr noundef nonnull @.str.12, ptr noundef nonnull @__func__.config_power_mgr_fini) #15
  unreachable

13:                                               ; preds = %_clear_power_config.exit
  ret void
}